target datalayout = "e-m:e-p270:32:32-p271:32:32-p272:64:64-i64:64-i128:128-f80:128-n8:16:32:64-S128"
target triple = "x86_64-pc-linux-gnu"

%struct.ec_group_st = type { ptr, ptr, %struct.bignum_st, %struct.bignum_st, i32, ptr, %struct.bignum_st, %struct.bignum_st, %struct.bignum_st, i32, ptr, %struct.bignum_st }
%struct.bignum_st = type { ptr, i32, i32, i32, i32 }
%struct.ec_point_st = type { ptr, %struct.bignum_st, %struct.bignum_st, %struct.bignum_st }

@.str = private unnamed_addr constant [118 x i8] c"generated/home/dtcxzyw/WorkSpace/Projects/compilers/llvm-opt-benchmark/bench/libquic/libquic/boringssl/crypto/ec/ec.c\00", align 1

; Function Attrs: nounwind uwtable
define hidden i32 @EC_POINT_add(ptr noundef %0, ptr noundef %1, ptr noundef %2, ptr noundef %3, ptr noundef %4) #1 {
  %6 = alloca i32, align 4
  %7 = alloca ptr, align 8
  %8 = alloca ptr, align 8
  %9 = alloca ptr, align 8
  %10 = alloca ptr, align 8
  %11 = alloca ptr, align 8
  store ptr %0, ptr %7, align 8, !tbaa !13
  store ptr %1, ptr %8, align 8, !tbaa !29
  store ptr %2, ptr %9, align 8, !tbaa !29
  store ptr %3, ptr %10, align 8, !tbaa !29
  store ptr %4, ptr %11, align 8, !tbaa !24
  %12 = load ptr, ptr %7, align 8, !tbaa !13
  %13 = getelementptr inbounds nuw %struct.ec_group_st, ptr %12, i32 0, i32 0
  %14 = load ptr, ptr %13, align 8, !tbaa !15
  %15 = load ptr, ptr %8, align 8, !tbaa !29
  %16 = getelementptr inbounds nuw %struct.ec_point_st, ptr %15, i32 0, i32 0
  %17 = load ptr, ptr %16, align 8, !tbaa !31
  %18 = icmp ne ptr %14, %17
  br i1 %18, label %35, label %19

19:                                               ; preds = %5
  %20 = load ptr, ptr %8, align 8, !tbaa !29
  %21 = getelementptr inbounds nuw %struct.ec_point_st, ptr %20, i32 0, i32 0
  %22 = load ptr, ptr %21, align 8, !tbaa !31
  %23 = load ptr, ptr %9, align 8, !tbaa !29
  %24 = getelementptr inbounds nuw %struct.ec_point_st, ptr %23, i32 0, i32 0
  %25 = load ptr, ptr %24, align 8, !tbaa !31
  %26 = icmp ne ptr %22, %25
  br i1 %26, label %35, label %27

27:                                               ; preds = %19
  %28 = load ptr, ptr %9, align 8, !tbaa !29
  %29 = getelementptr inbounds nuw %struct.ec_point_st, ptr %28, i32 0, i32 0
  %30 = load ptr, ptr %29, align 8, !tbaa !31
  %31 = load ptr, ptr %10, align 8, !tbaa !29
  %32 = getelementptr inbounds nuw %struct.ec_point_st, ptr %31, i32 0, i32 0
  %33 = load ptr, ptr %32, align 8, !tbaa !31
  %34 = icmp ne ptr %30, %33
  br i1 %34, label %35, label %36

35:                                               ; preds = %27, %19, %5
  call void @ERR_put_error(i32 noundef 15, i32 noundef 0, i32 noundef 106, ptr noundef @.str, i32 noundef 846)
  store i32 0, ptr %6, align 4
  br label %43

36:                                               ; preds = %27
  %37 = load ptr, ptr %7, align 8, !tbaa !13
  %38 = load ptr, ptr %8, align 8, !tbaa !29
  %39 = load ptr, ptr %9, align 8, !tbaa !29
  %40 = load ptr, ptr %10, align 8, !tbaa !29
  %41 = load ptr, ptr %11, align 8, !tbaa !24
  %42 = call i32 @ec_GFp_simple_add(ptr noundef %37, ptr noundef %38, ptr noundef %39, ptr noundef %40, ptr noundef %41)
  store i32 %42, ptr %6, align 4
  br label %43

43:                                               ; preds = %36, %35
  %44 = load i32, ptr %6, align 4
  ret i32 %44
}