; Function Attrs: nounwind uwtable
define hidden i32 @EC_POINT_add(ptr noundef %0, ptr noundef %1, ptr noundef %2, ptr noundef %3, ptr noundef %4) local_unnamed_addr #1 {
  %6 = load ptr, ptr %0, align 8, !tbaa !11
  %7 = load ptr, ptr %1, align 8, !tbaa !23
  %.not = icmp eq ptr %6, %7
  br i1 %.not, label %8, label %12

8:                                                ; preds = %5
  %9 = load ptr, ptr %2, align 8, !tbaa !23
  %.not13 = icmp eq ptr %6, %9
  br i1 %.not13, label %10, label %12

10:                                               ; preds = %8
  %11 = load ptr, ptr %3, align 8, !tbaa !23
  %.not14 = icmp eq ptr %6, %11
  br i1 %.not14, label %13, label %12

12:                                               ; preds = %10, %8, %5
  tail call void @ERR_put_error(i32 noundef 15, i32 noundef 0, i32 noundef 106, ptr noundef nonnull @.str, i32 noundef 846) #11
  br label %15

13:                                               ; preds = %10
  %14 = tail call i32 @ec_GFp_simple_add(ptr noundef nonnull %0, ptr noundef nonnull %1, ptr noundef nonnull %2, ptr noundef nonnull %3, ptr noundef %4) #11
  br label %15

15:                                               ; preds = %13, %12
  %.0 = phi i32 [ 0, %12 ], [ %14, %13 ]
  ret i32 %.0
}